target datalayout = "e-m:e-p270:32:32-p271:32:32-p272:64:64-i64:64-i128:128-f80:128-n8:16:32:64-S128"
target triple = "x86_64-pc-linux-gnu"

; Function Attrs: inlinehint mustprogress nounwind uwtable
define linkonce_odr noundef ptr @_ZN6icu_778Collator13fromUCollatorEPK9UCollator(ptr noundef %0) #2 comdat align 2 {
  %2 = alloca ptr, align 8
  store ptr %0, ptr %2, align 8, !tbaa !57
  %3 = load ptr, ptr %2, align 8, !tbaa !57
  ret ptr %3
}

; Function Attrs: inlinehint mustprogress nounwind uwtable
define linkonce_odr noundef ptr @_ZN6icu_7710UnicodeSet8fromUSetEP4USet(ptr noundef %0) #2 comdat align 2 {
  %2 = alloca ptr, align 8
  store ptr %0, ptr %2, align 8, !tbaa !65
  %3 = load ptr, ptr %2, align 8, !tbaa !65
  ret ptr %3
}

; Function Attrs: inlinehint mustprogress uwtable
define linkonce_odr noundef ptr @_ZN6icu_7717RuleBasedCollator16rbcFromUCollatorEPK9UCollator(ptr noundef %0) #3 comdat align 2 {
  %2 = alloca ptr, align 8
  store ptr %0, ptr %2, align 8, !tbaa !57
  %3 = load ptr, ptr %2, align 8, !tbaa !57
  %4 = call noundef ptr @_ZN6icu_778Collator13fromUCollatorEPK9UCollator(ptr noundef %3)
  %5 = icmp eq ptr %4, null
  br i1 %5, label %9, label %6

6:                                                ; preds = %1
  %7 = load ptr, ptr %4, align 8, !tbaa !61
  %8 = icmp eq ptr %7, getelementptr inbounds inrange(-16, 328) ({ [43 x ptr] }, ptr @_ZTVN6icu_7717RuleBasedCollatorE, i32 0, i32 0, i32 2)
  br i1 %8, label %10, label %9

9:                                                ; preds = %6, %1
  br label %10

10:                                               ; preds = %9, %6
  %11 = phi ptr [ %4, %6 ], [ null, %9 ]
  ret ptr %11
}

; Function Attrs: inlinehint mustprogress nounwind uwtable
define internal noundef signext i8 @_ZL9U_FAILURE10UErrorCode(i32 noundef %0) #2 {
  %2 = alloca i32, align 4
  store i32 %0, ptr %2, align 4, !tbaa !15
  %3 = load i32, ptr %2, align 4, !tbaa !15
  %4 = icmp sgt i32 %3, 0
  %5 = zext i1 %4 to i8
  ret i8 %5
}

; Function Attrs: mustprogress uwtable
define void @ucol_getContractionsAndExpansions_77(ptr noundef %0, ptr noundef %1, ptr noundef %2, i8 noundef signext %3, ptr noundef %4) #1 {
  %6 = alloca ptr, align 8
  %7 = alloca ptr, align 8
  %8 = alloca ptr, align 8
  %9 = alloca i8, align 1
  %10 = alloca ptr, align 8
  %11 = alloca ptr, align 8
  %12 = alloca i32, align 4
  store ptr %0, ptr %6, align 8, !tbaa !57
  store ptr %1, ptr %7, align 8, !tbaa !65
  store ptr %2, ptr %8, align 8, !tbaa !65
  store i8 %3, ptr %9, align 1, !tbaa !23
  store ptr %4, ptr %10, align 8, !tbaa !22
  %13 = load ptr, ptr %10, align 8, !tbaa !22
  %14 = load i32, ptr %13, align 4, !tbaa !15
  %15 = call noundef signext i8 @_ZL9U_FAILURE10UErrorCode(i32 noundef %14)
  %16 = icmp ne i8 %15, 0
  br i1 %16, label %17, label %18

17:                                               ; preds = %5
  br label %40

18:                                               ; preds = %5
  %19 = load ptr, ptr %6, align 8, !tbaa !57
  %20 = icmp eq ptr %19, null
  br i1 %20, label %21, label %23

21:                                               ; preds = %18
  %22 = load ptr, ptr %10, align 8, !tbaa !22
  store i32 1, ptr %22, align 4, !tbaa !15
  br label %40

23:                                               ; preds = %18
  call void @llvm.lifetime.start.p0(i64 8, ptr %11) #12
  %24 = load ptr, ptr %6, align 8, !tbaa !57
  %25 = call noundef ptr @_ZN6icu_7717RuleBasedCollator16rbcFromUCollatorEPK9UCollator(ptr noundef %24)
  store ptr %25, ptr %11, align 8, !tbaa !67
  %26 = load ptr, ptr %11, align 8, !tbaa !67
  %27 = icmp eq ptr %26, null
  br i1 %27, label %28, label %30

28:                                               ; preds = %23
  %29 = load ptr, ptr %10, align 8, !tbaa !22
  store i32 16, ptr %29, align 4, !tbaa !15
  store i32 1, ptr %12, align 4
  br label %38

30:                                               ; preds = %23
  %31 = load ptr, ptr %11, align 8, !tbaa !67
  %32 = load ptr, ptr %7, align 8, !tbaa !65
  %33 = call noundef ptr @_ZN6icu_7710UnicodeSet8fromUSetEP4USet(ptr noundef %32)
  %34 = load ptr, ptr %8, align 8, !tbaa !65
  %35 = call noundef ptr @_ZN6icu_7710UnicodeSet8fromUSetEP4USet(ptr noundef %34)
  %36 = load i8, ptr %9, align 1, !tbaa !23
  %37 = load ptr, ptr %10, align 8, !tbaa !22
  call void @_ZNK6icu_7717RuleBasedCollator36internalGetContractionsAndExpansionsEPNS_10UnicodeSetES2_aR10UErrorCode(ptr noundef nonnull align 8 dereferenceable(272) %31, ptr noundef %33, ptr noundef %35, i8 noundef signext %36, ptr noundef nonnull align 4 dereferenceable(4) %37)
  store i32 0, ptr %12, align 4
  br label %38

38:                                               ; preds = %30, %28
  call void @llvm.lifetime.end.p0(i64 8, ptr %11) #12
  %39 = load i32, ptr %12, align 4
  switch i32 %39, label %41 [
    i32 0, label %40
    i32 1, label %40
  ]

40:                                               ; preds = %17, %21, %38, %38
  ret void

41:                                               ; preds = %38
  unreachable
}