; Function Attrs: mustprogress uwtable
define void @ucol_getContractionsAndExpansions_77(ptr noundef %0, ptr noundef %1, ptr noundef %2, i8 noundef signext %3, ptr noundef %4) local_unnamed_addr #1 {
  %6 = load i32, ptr %4, align 4, !tbaa !13
  %7 = icmp slt i32 %6, 1
  br i1 %7, label %8, label %15

8:                                                ; preds = %5
  %9 = icmp eq ptr %0, null
  br i1 %9, label %10, label %11

10:                                               ; preds = %8
  store i32 1, ptr %4, align 4, !tbaa !13
  br label %15

11:                                               ; preds = %8
  %12 = load ptr, ptr %0, align 8, !tbaa !38
  %13 = icmp eq ptr %12, getelementptr inbounds nuw inrange(-16, 328) (i8, ptr @_ZTVN6icu_7717RuleBasedCollatorE, i64 16)
  br i1 %13, label %_ZN6icu_7717RuleBasedCollator16rbcFromUCollatorEPK9UCollator.exit, label %14

14:                                               ; preds = %11
  store i32 16, ptr %4, align 4, !tbaa !13
  br label %15

_ZN6icu_7717RuleBasedCollator16rbcFromUCollatorEPK9UCollator.exit: ; preds = %11
  tail call void @_ZNK6icu_7717RuleBasedCollator36internalGetContractionsAndExpansionsEPNS_10UnicodeSetES2_aR10UErrorCode(ptr noundef nonnull align 8 dereferenceable(272) %0, ptr noundef %1, ptr noundef %2, i8 noundef signext %3, ptr noundef nonnull align 4 dereferenceable(4) %4)
  br label %15

15:                                               ; preds = %14, %_ZN6icu_7717RuleBasedCollator16rbcFromUCollatorEPK9UCollator.exit, %5, %10
  ret void
}